target datalayout = "e-m:e-p270:32:32-p271:32:32-p272:64:64-i64:64-i128:128-f80:128-n8:16:32:64-S128"
target triple = "x86_64-pc-linux-gnu"

%"class.draco::PointCloudBuilder" = type { %"class.std::unique_ptr" }
%"class.std::unique_ptr" = type { %"struct.std::__uniq_ptr_data" }
%"struct.std::__uniq_ptr_data" = type { %"class.std::__uniq_ptr_impl" }
%"class.std::__uniq_ptr_impl" = type { %"class.std::tuple" }
%"class.std::tuple" = type { %"struct.std::_Tuple_impl" }
%"struct.std::_Tuple_impl" = type { %"struct.std::_Head_base.1" }
%"struct.std::_Head_base.1" = type { ptr }
%"class.draco::PointCloud" = type <{ ptr, %"class.std::unique_ptr.2", %"class.std::vector", [5 x %"class.std::vector.10"], i32, [4 x i8] }>
%"class.std::unique_ptr.2" = type { %"struct.std::__uniq_ptr_data.3" }
%"struct.std::__uniq_ptr_data.3" = type { %"class.std::__uniq_ptr_impl.4" }
%"class.std::__uniq_ptr_impl.4" = type { %"class.std::tuple.5" }
%"class.std::tuple.5" = type { %"struct.std::_Tuple_impl.6" }
%"struct.std::_Tuple_impl.6" = type { %"struct.std::_Head_base.9" }
%"struct.std::_Head_base.9" = type { ptr }
%"class.std::vector" = type { %"struct.std::_Vector_base" }
%"struct.std::_Vector_base" = type { %"struct.std::_Vector_base<std::unique_ptr<draco::PointAttribute>, std::allocator<std::unique_ptr<draco::PointAttribute>>>::_Vector_impl" }
%"struct.std::_Vector_base<std::unique_ptr<draco::PointAttribute>, std::allocator<std::unique_ptr<draco::PointAttribute>>>::_Vector_impl" = type { %"struct.std::_Vector_base<std::unique_ptr<draco::PointAttribute>, std::allocator<std::unique_ptr<draco::PointAttribute>>>::_Vector_impl_data" }
%"struct.std::_Vector_base<std::unique_ptr<draco::PointAttribute>, std::allocator<std::unique_ptr<draco::PointAttribute>>>::_Vector_impl_data" = type { ptr, ptr, ptr }
%"class.std::vector.10" = type { %"struct.std::_Vector_base.11" }
%"struct.std::_Vector_base.11" = type { %"struct.std::_Vector_base<int, std::allocator<int>>::_Vector_impl" }
%"struct.std::_Vector_base<int, std::allocator<int>>::_Vector_impl" = type { %"struct.std::_Vector_base<int, std::allocator<int>>::_Vector_impl_data" }
%"struct.std::_Vector_base<int, std::allocator<int>>::_Vector_impl_data" = type { ptr, ptr, ptr }
%"class.draco::GeometryAttribute" = type { ptr, %"struct.draco::DataBufferDescriptor", i8, i32, i8, i64, i64, i32, i32 }
%"struct.draco::DataBufferDescriptor" = type { i64, i64 }

; Function Attrs: mustprogress nounwind uwtable
define linkonce_odr noundef nonnull align 8 dereferenceable(8) ptr @_ZNSt10_Head_baseILm0EPN5draco10PointCloudELb0EE7_M_headERKS3_(ptr noundef nonnull align 8 dereferenceable(8) %0) #4 comdat align 2 {
  %2 = alloca ptr, align 8
  store ptr %0, ptr %2, align 8, !tbaa !96
  %3 = load ptr, ptr %2, align 8, !tbaa !96
  %4 = getelementptr inbounds nuw %"struct.std::_Head_base.1", ptr %3, i32 0, i32 0
  ret ptr %4
}

; Function Attrs: mustprogress nounwind uwtable
define linkonce_odr noundef nonnull align 8 dereferenceable(8) ptr @_ZNSt11_Tuple_implILm0EJPN5draco10PointCloudESt14default_deleteIS1_EEE7_M_headERKS5_(ptr noundef nonnull align 8 dereferenceable(8) %0) #4 comdat align 2 {
  %2 = alloca ptr, align 8
  store ptr %0, ptr %2, align 8, !tbaa !92
  %3 = load ptr, ptr %2, align 8, !tbaa !92
  %4 = call noundef nonnull align 8 dereferenceable(8) ptr @_ZNSt10_Head_baseILm0EPN5draco10PointCloudELb0EE7_M_headERKS3_(ptr noundef nonnull align 8 dereferenceable(8) %3) #3
  ret ptr %4
}

; Function Attrs: mustprogress nounwind uwtable
define linkonce_odr noundef nonnull align 8 dereferenceable(8) ptr @_ZSt12__get_helperILm0EPN5draco10PointCloudEJSt14default_deleteIS1_EEERKT0_RKSt11_Tuple_implIXT_EJS5_DpT1_EE(ptr noundef nonnull align 8 dereferenceable(8) %0) #4 comdat {
  %2 = alloca ptr, align 8
  store ptr %0, ptr %2, align 8, !tbaa !92
  %3 = load ptr, ptr %2, align 8, !tbaa !92
  %4 = call noundef nonnull align 8 dereferenceable(8) ptr @_ZNSt11_Tuple_implILm0EJPN5draco10PointCloudESt14default_deleteIS1_EEE7_M_headERKS5_(ptr noundef nonnull align 8 dereferenceable(8) %3) #3
  ret ptr %4
}

; Function Attrs: mustprogress nounwind uwtable
define linkonce_odr noundef nonnull align 8 dereferenceable(8) ptr @_ZSt3getILm0EJPN5draco10PointCloudESt14default_deleteIS1_EEERKNSt13tuple_elementIXT_ESt5tupleIJDpT0_EEE4typeERKS9_(ptr noundef nonnull align 8 dereferenceable(8) %0) #4 comdat {
  %2 = alloca ptr, align 8
  store ptr %0, ptr %2, align 8, !tbaa !90
  %3 = load ptr, ptr %2, align 8, !tbaa !90
  %4 = call noundef nonnull align 8 dereferenceable(8) ptr @_ZSt12__get_helperILm0EPN5draco10PointCloudEJSt14default_deleteIS1_EEERKT0_RKSt11_Tuple_implIXT_EJS5_DpT1_EE(ptr noundef nonnull align 8 dereferenceable(8) %3) #3
  ret ptr %4
}

; Function Attrs: mustprogress nounwind uwtable
define linkonce_odr noundef ptr @_ZNKSt15__uniq_ptr_implIN5draco10PointCloudESt14default_deleteIS1_EE6_M_ptrEv(ptr noundef nonnull align 8 dereferenceable(8) %0) #4 comdat align 2 {
  %2 = alloca ptr, align 8
  store ptr %0, ptr %2, align 8, !tbaa !88
  %3 = load ptr, ptr %2, align 8
  %4 = getelementptr inbounds nuw %"class.std::__uniq_ptr_impl", ptr %3, i32 0, i32 0
  %5 = call noundef nonnull align 8 dereferenceable(8) ptr @_ZSt3getILm0EJPN5draco10PointCloudESt14default_deleteIS1_EEERKNSt13tuple_elementIXT_ESt5tupleIJDpT0_EEE4typeERKS9_(ptr noundef nonnull align 8 dereferenceable(8) %4) #3
  %6 = load ptr, ptr %5, align 8, !tbaa !12
  ret ptr %6
}

; Function Attrs: mustprogress nounwind uwtable
define linkonce_odr noundef ptr @_ZNKSt10unique_ptrIN5draco10PointCloudESt14default_deleteIS1_EE3getEv(ptr noundef nonnull align 8 dereferenceable(8) %0) #4 comdat align 2 {
  %2 = alloca ptr, align 8
  store ptr %0, ptr %2, align 8, !tbaa !8
  %3 = load ptr, ptr %2, align 8
  %4 = getelementptr inbounds nuw %"class.std::unique_ptr", ptr %3, i32 0, i32 0
  %5 = call noundef ptr @_ZNKSt15__uniq_ptr_implIN5draco10PointCloudESt14default_deleteIS1_EE6_M_ptrEv(ptr noundef nonnull align 8 dereferenceable(8) %4) #3
  ret ptr %5
}

; Function Attrs: mustprogress nounwind uwtable
define linkonce_odr noundef i32 @_ZNK5draco10PointCloud10num_pointsEv(ptr noundef nonnull align 8 dereferenceable(164) %0) #4 comdat align 2 {
  %2 = alloca ptr, align 8
  store ptr %0, ptr %2, align 8, !tbaa !12
  %3 = load ptr, ptr %2, align 8
  %4 = getelementptr inbounds nuw %"class.draco::PointCloud", ptr %3, i32 0, i32 4
  %5 = load i32, ptr %4, align 8, !tbaa !16
  ret i32 %5
}

; Function Attrs: mustprogress nounwind uwtable
define linkonce_odr noundef ptr @_ZNKSt10unique_ptrIN5draco10PointCloudESt14default_deleteIS1_EEptEv(ptr noundef nonnull align 8 dereferenceable(8) %0) #4 comdat align 2 {
  %2 = alloca ptr, align 8
  store ptr %0, ptr %2, align 8, !tbaa !8
  %3 = load ptr, ptr %2, align 8
  %4 = call noundef ptr @_ZNKSt10unique_ptrIN5draco10PointCloudESt14default_deleteIS1_EE3getEv(ptr noundef nonnull align 8 dereferenceable(8) %3) #3
  ret ptr %4
}

; Function Attrs: mustprogress uwtable
define noundef i32 @_ZN5draco17PointCloudBuilder12AddAttributeENS_17GeometryAttribute4TypeEaNS_8DataTypeEb(ptr noundef nonnull align 8 dereferenceable(8) %0, i32 noundef %1, i8 noundef signext %2, i32 noundef %3, i1 noundef zeroext %4) #5 align 2 {
  %6 = alloca ptr, align 8
  %7 = alloca i32, align 4
  %8 = alloca i8, align 1
  %9 = alloca i32, align 4
  %10 = alloca i8, align 1
  %11 = alloca %"class.draco::GeometryAttribute", align 8
  store ptr %0, ptr %6, align 8, !tbaa !3
  store i32 %1, ptr %7, align 4, !tbaa !30
  store i8 %2, ptr %8, align 1, !tbaa !32
  store i32 %3, ptr %9, align 4, !tbaa !33
  %12 = zext i1 %4 to i8
  store i8 %12, ptr %10, align 1, !tbaa !35
  %13 = load ptr, ptr %6, align 8
  call void @llvm.lifetime.start.p0(i64 64, ptr %11) #3
  call void @_ZN5draco17GeometryAttributeC1Ev(ptr noundef nonnull align 8 dereferenceable(64) %11)
  %14 = load i32, ptr %7, align 4, !tbaa !30
  %15 = load i8, ptr %8, align 1, !tbaa !32
  %16 = load i32, ptr %9, align 4, !tbaa !33
  %17 = load i8, ptr %10, align 1, !tbaa !35, !range !37, !noundef !38
  %18 = trunc i8 %17 to i1
  %19 = load i32, ptr %9, align 4, !tbaa !33
  %20 = call noundef i32 @_ZN5draco14DataTypeLengthENS_8DataTypeE(i32 noundef %19)
  %21 = load i8, ptr %8, align 1, !tbaa !32
  %22 = sext i8 %21 to i32
  %23 = mul nsw i32 %20, %22
  %24 = sext i32 %23 to i64
  call void @_ZN5draco17GeometryAttribute4InitENS0_4TypeEPNS_10DataBufferEhNS_8DataTypeEbll(ptr noundef nonnull align 8 dereferenceable(64) %11, i32 noundef %14, ptr noundef null, i8 noundef zeroext %15, i32 noundef %16, i1 noundef zeroext %18, i64 noundef %24, i64 noundef 0)
  %25 = getelementptr inbounds nuw %"class.draco::PointCloudBuilder", ptr %13, i32 0, i32 0
  %26 = call noundef ptr @_ZNKSt10unique_ptrIN5draco10PointCloudESt14default_deleteIS1_EEptEv(ptr noundef nonnull align 8 dereferenceable(8) %25) #3
  %27 = getelementptr inbounds nuw %"class.draco::PointCloudBuilder", ptr %13, i32 0, i32 0
  %28 = call noundef ptr @_ZNKSt10unique_ptrIN5draco10PointCloudESt14default_deleteIS1_EEptEv(ptr noundef nonnull align 8 dereferenceable(8) %27) #3
  %29 = call noundef i32 @_ZNK5draco10PointCloud10num_pointsEv(ptr noundef nonnull align 8 dereferenceable(164) %28)
  %30 = call noundef i32 @_ZN5draco10PointCloud12AddAttributeERKNS_17GeometryAttributeEbj(ptr noundef nonnull align 8 dereferenceable(164) %26, ptr noundef nonnull align 8 dereferenceable(64) %11, i1 noundef zeroext true, i32 noundef %29)
  call void @llvm.lifetime.end.p0(i64 64, ptr %11) #3
  ret i32 %30
}

; Function Attrs: mustprogress uwtable
define noundef i32 @_ZN5draco17PointCloudBuilder12AddAttributeENS_17GeometryAttribute4TypeEaNS_8DataTypeE(ptr noundef nonnull align 8 dereferenceable(8) %0, i32 noundef %1, i8 noundef signext %2, i32 noundef %3) #5 align 2 {
  %5 = alloca ptr, align 8
  %6 = alloca i32, align 4
  %7 = alloca i8, align 1
  %8 = alloca i32, align 4
  store ptr %0, ptr %5, align 8, !tbaa !3
  store i32 %1, ptr %6, align 4, !tbaa !30
  store i8 %2, ptr %7, align 1, !tbaa !32
  store i32 %3, ptr %8, align 4, !tbaa !33
  %9 = load ptr, ptr %5, align 8
  %10 = load i32, ptr %6, align 4, !tbaa !30
  %11 = load i8, ptr %7, align 1, !tbaa !32
  %12 = load i32, ptr %8, align 4, !tbaa !33
  %13 = call noundef i32 @_ZN5draco17PointCloudBuilder12AddAttributeENS_17GeometryAttribute4TypeEaNS_8DataTypeEb(ptr noundef nonnull align 8 dereferenceable(8) %9, i32 noundef %10, i8 noundef signext %11, i32 noundef %12, i1 noundef zeroext false)
  ret i32 %13
}