; Function Attrs: mustprogress uwtable
define noundef i32 @_ZN5draco17PointCloudBuilder12AddAttributeENS_17GeometryAttribute4TypeEaNS_8DataTypeE(ptr noundef nonnull readonly align 8 captures(none) dereferenceable(8) %0, i32 noundef %1, i8 noundef signext %2, i32 noundef %3) local_unnamed_addr #4 align 2 {
  %5 = alloca %"class.draco::GeometryAttribute", align 8
  call void @llvm.lifetime.start.p0(i64 64, ptr nonnull %5) #12
  call void @_ZN5draco17GeometryAttributeC1Ev(ptr noundef nonnull align 8 dereferenceable(64) %5)
  %6 = call noundef i32 @_ZN5draco14DataTypeLengthENS_8DataTypeE(i32 noundef %3)
  %7 = sext i8 %2 to i32
  %8 = mul nsw i32 %6, %7
  %9 = sext i32 %8 to i64
  call void @_ZN5draco17GeometryAttribute4InitENS0_4TypeEPNS_10DataBufferEhNS_8DataTypeEbll(ptr noundef nonnull align 8 dereferenceable(64) %5, i32 noundef %1, ptr noundef null, i8 noundef zeroext %2, i32 noundef %3, i1 noundef zeroext false, i64 noundef %9, i64 noundef 0)
  %10 = load ptr, ptr %0, align 8, !tbaa !9
  %11 = getelementptr inbounds nuw i8, ptr %10, i64 160
  %12 = load i32, ptr %11, align 8, !tbaa !12
  %13 = call noundef i32 @_ZN5draco10PointCloud12AddAttributeERKNS_17GeometryAttributeEbj(ptr noundef nonnull align 8 dereferenceable(164) %10, ptr noundef nonnull align 8 dereferenceable(64) %5, i1 noundef zeroext true, i32 noundef %12)
  call void @llvm.lifetime.end.p0(i64 64, ptr nonnull %5) #12
  ret i32 %13
}